ccopy_reg
_reconstructor
p0
(cdata_structs
Vocabulary
p1
c__builtin__
object
p2
Ntp3
Rp4
(dp5
S'vocab'
p6
(dp7
S'[b-]'
p8
I69
sS'EOS'
p9
I84
sS'GO'
p10
I85
sS'[S+]'
p11
I56
sS'[B-]'
p12
I27
sS'('
p13
I2
sS'[BH2-]'
p14
I29
sS'4'
p15
I10
sS'8'
p16
I14
sS'[SiH-]'
p17
I63
sS'[SH-]'
p18
I59
sS'[IH2]'
p19
I40
sS'[SiH8+4]'
p20
I66
sS'9'
p21
I15
sS'[CH4+]'
p22
I36
sS'[P+]'
p23
I53
sS'[NH+]'
p24
I44
sS'p'
p25
I82
sS'[O]'
p26
I52
sS'[nH]'
p27
I75
sS'[L+3]'
p28
I41
sS'#'
p29
I0
sS'[I+]'
p30
I39
sS'I'
p31
I20
sS'3'
p32
I9
sS'[SH]'
p33
I60
sS'7'
p34
I13
sS'[Si-]'
p35
I62
sS'[CH2+]'
p36
I34
sS'[CH3+]'
p37
I35
sS'O'
p38
I23
sS'S'
p39
I26
sS'[SiH]'
p40
I67
sS'[OH+]'
p41
I51
sS'c'
p42
I79
sS'C'
p43
I18
sS'[PH2+]'
p44
I54
sS'o'
p45
I81
sS's'
p46
I83
sS'[SH+]'
p47
I58
sS'[O-]'
p48
I50
sS'[s+]'
p49
I77
sS'[F-]'
p50
I38
sS'[CH]'
p51
I37
sS'0'
p52
I6
sS'[c-]'
p53
I70
sS'[o+]'
p54
I76
sS'[SiH2]'
p55
I64
sS'.'
p56
I5
sS'2'
p57
I8
sS'6'
p58
I12
sS'[BH3-]'
p59
I30
sS'[N]'
p60
I48
sS'F'
p61
I19
sS'[O+]'
p62
I49
sS'N'
p63
I22
sS'R'
p64
I25
sS'b'
p65
I78
sS'n'
p66
I80
sS'[N+]'
p67
I42
sS'[nH+]'
p68
I74
sS'B'
p69
I17
sS'[S-]'
p70
I57
sS'[CH-]'
p71
I33
sS'[BH-]'
p72
I28
sS'%'
p73
I1
sS'[B]'
p74
I31
sS')'
p75
I3
sS'[n-]'
p76
I73
sS'-'
p77
I4
sS'1'
p78
I7
sS'5'
p79
I11
sS'[NH3+]'
p80
I47
sS'[PH]'
p81
I55
sS'='
p82
I16
sS'[cH-]'
p83
I71
sS'[NH2+]'
p84
I46
sS'[C-]'
p85
I32
sS'[N-]'
p86
I43
sS'L'
p87
I21
sS'[SiH3-]'
p88
I65
sS'[Si]'
p89
I68
sS'[S]'
p90
I61
sS'[n+]'
p91
I72
sS'P'
p92
I24
sS'[NH-]'
p93
I45
ssS'vocab_size'
p94
I86
sS'chars'
p95
(lp96
g29
ag73
ag13
ag75
ag77
ag56
ag52
ag78
ag57
ag32
ag15
ag79
ag58
ag34
ag16
ag21
ag82
ag69
ag43
ag61
ag31
ag87
ag63
ag38
ag92
ag64
ag39
ag12
ag72
ag14
ag59
ag74
ag85
ag71
ag36
ag37
ag22
ag51
ag50
ag30
ag19
ag28
ag67
ag86
ag24
ag93
ag84
ag80
ag60
ag62
ag48
ag41
ag26
ag23
ag44
ag81
ag11
ag70
ag47
ag18
ag33
ag90
ag35
ag17
ag55
ag88
ag20
ag40
ag89
ag8
ag53
ag83
ag91
ag76
ag68
ag27
ag54
ag49
ag65
ag42
ag66
ag45
ag25
ag46
ag9
ag10
asS'reversed_vocab'
p97
(dp98
I0
g29
sI1
g73
sI2
g13
sI3
g75
sI4
g77
sI5
g56
sI6
g52
sI7
g78
sI8
g57
sI9
g32
sI10
g15
sI11
g79
sI12
g58
sI13
g34
sI14
g16
sI15
g21
sI16
g82
sI17
g69
sI18
g43
sI19
g61
sI20
g31
sI21
g87
sI22
g63
sI23
g38
sI24
g92
sI25
g64
sI26
g39
sI27
g12
sI28
g72
sI29
g14
sI30
g59
sI31
g74
sI32
g85
sI33
g71
sI34
g36
sI35
g37
sI36
g22
sI37
g51
sI38
g50
sI39
g30
sI40
g19
sI41
g28
sI42
g67
sI43
g86
sI44
g24
sI45
g93
sI46
g84
sI47
g80
sI48
g60
sI49
g62
sI50
g48
sI51
g41
sI52
g26
sI53
g23
sI54
g44
sI55
g81
sI56
g11
sI57
g70
sI58
g47
sI59
g18
sI60
g33
sI61
g90
sI62
g35
sI63
g17
sI64
g55
sI65
g88
sI66
g20
sI67
g40
sI68
g89
sI69
g8
sI70
g53
sI71
g83
sI72
g91
sI73
g76
sI74
g68
sI75
g27
sI76
g54
sI77
g49
sI78
g65
sI79
g42
sI80
g66
sI81
g45
sI82
g25
sI83
g46
sI84
g9
sI85
g10
ssS'max_length'
p99
I140
sS'special_tokens'
p100
(lp101
g9
ag10
asS'additional_chars'
p102
c__builtin__
set
p103
((lp104
g26
ag8
ag27
ag25
ag55
ag87
ag28
ag91
ag22
ag69
ag45
ag70
ag68
ag66
ag71
ag11
ag78
ag29
ag51
ag73
ag12
ag74
ag53
ag13
ag54
ag77
ag56
ag30
ag52
ag32
ag57
ag79
ag15
ag34
ag58
ag35
ag16
ag21
ag82
ag17
ag18
ag84
ag36
ag60
ag80
ag61
ag85
ag86
ag62
ag37
ag72
ag38
ag41
ag81
ag39
ag64
ag89
ag19
ag40
ag90
ag24
ag63
ag88
ag23
ag42
ag65
ag31
ag50
ag92
ag43
ag59
ag20
ag44
ag93
ag83
ag75
ag46
ag14
ag47
ag76
ag33
ag67
ag48
ag49
atp105
Rp106
sb.